; Function Attrs: nounwind sspstrong uwtable
define dso_local i64 @rb_gc_stat(i64 noundef %0) local_unnamed_addr #0 {
  %2 = icmp eq i64 %0, 0
  %3 = and i64 %0, 7
  %4 = icmp ne i64 %3, 0
  %5 = or i1 %2, %4
  br i1 %5, label %rbimpl_RB_TYPE_P_fastpath.exit.thread, label %rbimpl_RB_TYPE_P_fastpath.exit

rbimpl_RB_TYPE_P_fastpath.exit:                   ; preds = %1
  %6 = inttoptr i64 %0 to ptr
  %7 = load i64, ptr %6, align 8, !tbaa !113
  %8 = and i64 %7, 31
  switch i64 %8, label %RB_SYMBOL_P.exit.thread13 [
    i64 8, label %RB_SYMBOL_P.exit.thread
    i64 20, label %RB_SYMBOL_P.exit.thread
  ]

rbimpl_RB_TYPE_P_fastpath.exit.thread:            ; preds = %1
  %9 = and i64 %0, 255
  %10 = icmp eq i64 %9, 12
  br i1 %10, label %RB_SYMBOL_P.exit.thread, label %RB_SYMBOL_P.exit.thread13

RB_SYMBOL_P.exit.thread13:                        ; preds = %rbimpl_RB_TYPE_P_fastpath.exit, %rbimpl_RB_TYPE_P_fastpath.exit.thread
  %11 = load i64, ptr @rb_eTypeError, align 8, !tbaa !93
  tail call void (i64, ptr, ...) @rb_raise(i64 noundef %11, ptr noundef nonnull @.str.30) #55
  unreachable

RB_SYMBOL_P.exit.thread:                          ; preds = %rbimpl_RB_TYPE_P_fastpath.exit, %rbimpl_RB_TYPE_P_fastpath.exit, %rbimpl_RB_TYPE_P_fastpath.exit.thread
  %12 = load ptr, ptr @ruby_current_vm_ptr, align 8, !tbaa !62
  %13 = getelementptr inbounds nuw i8, ptr %12, i64 1296
  %14 = load ptr, ptr %13, align 8, !tbaa !63
  %15 = tail call fastcc i64 @rb_gc_impl_stat(ptr noundef %14, i64 noundef %0)
  %16 = icmp eq i64 %15, 36
  br i1 %16, label %17, label %20

17:                                               ; preds = %RB_SYMBOL_P.exit.thread
  %18 = load i64, ptr @rb_eArgError, align 8, !tbaa !93
  %19 = tail call i64 @rb_sym2str(i64 noundef %0) #7
  tail call void (i64, ptr, ...) @rb_raise(i64 noundef %18, ptr noundef nonnull @.str.31, i64 noundef %19) #55
  unreachable

20:                                               ; preds = %RB_SYMBOL_P.exit.thread
  %21 = and i64 %0, 255
  %22 = icmp eq i64 %21, 12
  br i1 %22, label %RB_SYMBOL_P.exit9.thread, label %23

23:                                               ; preds = %20
  br i1 %5, label %rb_num2ull_inline.exit, label %RB_SYMBOL_P.exit9

RB_SYMBOL_P.exit9:                                ; preds = %23
  %24 = inttoptr i64 %0 to ptr
  %25 = load i64, ptr %24, align 8, !tbaa !113
  %26 = and i64 %25, 31
  %27 = icmp eq i64 %26, 20
  br i1 %27, label %RB_SYMBOL_P.exit9.thread, label %rb_num2ull_inline.exit

RB_SYMBOL_P.exit9.thread:                         ; preds = %20, %RB_SYMBOL_P.exit9
  %28 = and i64 %15, 1
  %.not.i = icmp eq i64 %28, 0
  br i1 %.not.i, label %31, label %29

29:                                               ; preds = %RB_SYMBOL_P.exit9.thread
  %30 = ashr i64 %15, 1
  br label %rb_num2ull_inline.exit

31:                                               ; preds = %RB_SYMBOL_P.exit9.thread
  %32 = tail call i64 @rb_num2ull(i64 noundef range(i64 37, 36) %15) #7
  br label %rb_num2ull_inline.exit

rb_num2ull_inline.exit:                           ; preds = %23, %31, %29, %RB_SYMBOL_P.exit9
  %.0 = phi i64 [ 0, %RB_SYMBOL_P.exit9 ], [ %30, %29 ], [ %32, %31 ], [ 0, %23 ]
  ret i64 %.0
}